; Function Attrs: mustprogress nofree norecurse nosync nounwind memory(readwrite, inaccessiblemem: none) uwtable
define noundef nonnull align 8 dereferenceable(24) ptr @_ZN6casadi10PolynomialdVEd(ptr noundef nonnull readonly returned align 8 dereferenceable(24) %0, double noundef %1) local_unnamed_addr #7 align 2 {
  %3 = load ptr, ptr %0, align 8
  %4 = getelementptr inbounds i8, ptr %0, i64 8
  %5 = load ptr, ptr %4, align 8
  %.not5 = icmp eq ptr %3, %5
  br i1 %.not5, label %._crit_edge, label %.lr.ph

.lr.ph:                                           ; preds = %2, %.lr.ph
  %.sroa.02.06 = phi ptr [ %8, %.lr.ph ], [ %3, %2 ]
  %6 = load double, ptr %.sroa.02.06, align 8
  %7 = fdiv double %6, %1
  store double %7, ptr %.sroa.02.06, align 8
  %8 = getelementptr inbounds i8, ptr %.sroa.02.06, i64 8
  %9 = load ptr, ptr %4, align 8
  %.not = icmp eq ptr %8, %9
  br i1 %.not, label %._crit_edge, label %.lr.ph, !llvm.loop !12

._crit_edge:                                      ; preds = %.lr.ph, %2
  ret ptr %0
}